target datalayout = "e-m:e-p270:32:32-p271:32:32-p272:64:64-i64:64-i128:128-f80:128-n8:16:32:64-S128"
target triple = "x86_64-pc-linux-gnu"

%struct.vfd = type { i32, i16, ptr, i32, i32, i32, i64, ptr, i32, i32 }

@VfdCache = internal global ptr null, align 8
@my_wait_event_info = external global ptr, align 8

; Function Attrs: inlinehint nounwind uwtable
define internal void @pgstat_report_wait_end() #9 {
  %1 = load ptr, ptr @my_wait_event_info, align 8
  store volatile i32 0, ptr %1, align 4
  ret void
}

; Function Attrs: inlinehint nounwind uwtable
define internal void @pgstat_report_wait_start(i32 noundef %0) #9 {
  %2 = alloca i32, align 4
  store i32 %0, ptr %2, align 4
  %3 = load i32, ptr %2, align 4
  %4 = load ptr, ptr @my_wait_event_info, align 8
  store volatile i32 %3, ptr %4, align 4
  ret void
}

; Function Attrs: nounwind uwtable
define dso_local void @FileWriteback(i32 noundef %0, i64 noundef %1, i64 noundef %2, i32 noundef %3) #0 {
  %5 = alloca i32, align 4
  %6 = alloca i64, align 8
  %7 = alloca i64, align 8
  %8 = alloca i32, align 4
  %9 = alloca i32, align 4
  %10 = alloca i32, align 4
  store i32 %0, ptr %5, align 4
  store i64 %1, ptr %6, align 8
  store i64 %2, ptr %7, align 8
  store i32 %3, ptr %8, align 4
  call void @llvm.lifetime.start.p0(i64 4, ptr %9) #14
  %11 = load i64, ptr %7, align 8
  %12 = icmp sle i64 %11, 0
  br i1 %12, label %13, label %14

13:                                               ; preds = %4
  store i32 1, ptr %10, align 4
  br label %40

14:                                               ; preds = %4
  %15 = load ptr, ptr @VfdCache, align 8
  %16 = load i32, ptr %5, align 4
  %17 = sext i32 %16 to i64
  %18 = getelementptr inbounds %struct.vfd, ptr %15, i64 %17
  %19 = getelementptr inbounds nuw %struct.vfd, ptr %18, i32 0, i32 8
  %20 = load i32, ptr %19, align 8
  %21 = and i32 %20, 16384
  %22 = icmp ne i32 %21, 0
  br i1 %22, label %23, label %24

23:                                               ; preds = %14
  store i32 1, ptr %10, align 4
  br label %40

24:                                               ; preds = %14
  %25 = load i32, ptr %5, align 4
  %26 = call i32 @FileAccess(i32 noundef %25)
  store i32 %26, ptr %9, align 4
  %27 = load i32, ptr %9, align 4
  %28 = icmp slt i32 %27, 0
  br i1 %28, label %29, label %30

29:                                               ; preds = %24
  store i32 1, ptr %10, align 4
  br label %40

30:                                               ; preds = %24
  %31 = load i32, ptr %8, align 4
  call void @pgstat_report_wait_start(i32 noundef %31)
  %32 = load ptr, ptr @VfdCache, align 8
  %33 = load i32, ptr %5, align 4
  %34 = sext i32 %33 to i64
  %35 = getelementptr inbounds %struct.vfd, ptr %32, i64 %34
  %36 = getelementptr inbounds nuw %struct.vfd, ptr %35, i32 0, i32 0
  %37 = load i32, ptr %36, align 8
  %38 = load i64, ptr %6, align 8
  %39 = load i64, ptr %7, align 8
  call void @pg_flush_data(i32 noundef %37, i64 noundef %38, i64 noundef %39)
  call void @pgstat_report_wait_end()
  store i32 0, ptr %10, align 4
  br label %40

40:                                               ; preds = %30, %29, %23, %13
  call void @llvm.lifetime.end.p0(i64 4, ptr %9) #14
  %41 = load i32, ptr %10, align 4
  switch i32 %41, label %43 [
    i32 0, label %42
    i32 1, label %42
  ]

42:                                               ; preds = %40, %40
  ret void

43:                                               ; preds = %40
  unreachable
}