; Function Attrs: nounwind uwtable
define dso_local void @FileWriteback(i32 noundef %0, i64 noundef %1, i64 noundef %2, i32 noundef %3) local_unnamed_addr #0 {
  %5 = icmp slt i64 %2, 1
  br i1 %5, label %21, label %6

6:                                                ; preds = %4
  %7 = load ptr, ptr @VfdCache, align 8
  %8 = sext i32 %0 to i64
  %9 = getelementptr inbounds %struct.vfd, ptr %7, i64 %8, i32 8
  %10 = load i32, ptr %9, align 8
  %11 = and i32 %10, 16384
  %.not = icmp eq i32 %11, 0
  br i1 %.not, label %12, label %21

12:                                               ; preds = %6
  %13 = tail call fastcc i32 @FileAccess(i32 noundef %0)
  %14 = icmp slt i32 %13, 0
  br i1 %14, label %21, label %15

15:                                               ; preds = %12
  %16 = load ptr, ptr @my_wait_event_info, align 8
  store volatile i32 %3, ptr %16, align 4
  %17 = load ptr, ptr @VfdCache, align 8
  %18 = getelementptr inbounds %struct.vfd, ptr %17, i64 %8
  %19 = load i32, ptr %18, align 8
  tail call void @pg_flush_data(i32 noundef %19, i64 noundef %1, i64 noundef %2)
  %20 = load ptr, ptr @my_wait_event_info, align 8
  store volatile i32 0, ptr %20, align 4
  br label %21

21:                                               ; preds = %12, %6, %4, %15
  ret void
}